; ModuleID = '50/14.c'
source_filename = "50/14.c"
target datalayout = "e-m:e-p270:32:32-p271:32:32-p272:64:64-i64:64-f80:128-n8:16:32:64-S128"
target triple = "x86_64-pc-linux-gnu"

@.str = private unnamed_addr constant [3 x i8] c"%d\00", align 1
@.str.1 = private unnamed_addr constant [4 x i8] c"%d\0A\00", align 1

; Function Attrs: noinline nounwind uwtable
define dso_local i32 @main() #0 {
  %1 = alloca i32, align 4
  %2 = alloca i32, align 4
  %3 = alloca i32, align 4
  %4 = alloca i32, align 4
  %5 = alloca i32, align 4
  %6 = alloca i32, align 4
  %7 = alloca i32, align 4
  %8 = alloca i32, align 4
  store i32 0, i32* %1, align 4
  store i32 13, i32* %5, align 4
  %9 = call i32 (i8*, ...) @__isoc99_scanf(i8* getelementptr inbounds ([3 x i8], [3 x i8]* @.str, i64 0, i64 0), i32* %2)
  store i32 1, i32* %3, align 4
  br label %10

10:                                               ; preds = %53, %0
  %11 = load i32, i32* %3, align 4
  %12 = icmp sle i32 %11, 12
  br i1 %12, label %13, label %56

13:                                               ; preds = %10
  store i32 1, i32* %8, align 4
  br label %14

14:                                               ; preds = %33, %13
  %15 = load i32, i32* %8, align 4
  %16 = load i32, i32* %3, align 4
  %17 = icmp sle i32 %15, %16
  br i1 %17, label %18, label %36

18:                                               ; preds = %14
  %19 = load i32, i32* %8, align 4
  switch i32 %19, label %32 [
    i32 1, label %20
    i32 2, label %21
    i32 3, label %22
    i32 4, label %23
    i32 5, label %24
    i32 6, label %25
    i32 7, label %26
    i32 8, label %27
    i32 9, label %28
    i32 10, label %29
    i32 11, label %30
    i32 12, label %31
  ]

20:                                               ; preds = %18
  store i32 0, i32* %6, align 4
  br label %32

21:                                               ; preds = %18
  store i32 31, i32* %6, align 4
  br label %32

22:                                               ; preds = %18
  store i32 28, i32* %6, align 4
  br label %32

23:                                               ; preds = %18
  store i32 31, i32* %6, align 4
  br label %32

24:                                               ; preds = %18
  store i32 30, i32* %6, align 4
  br label %32

25:                                               ; preds = %18
  store i32 31, i32* %6, align 4
  br label %32

26:                                               ; preds = %18
  store i32 30, i32* %6, align 4
  br label %32

27:                                               ; preds = %18
  store i32 31, i32* %6, align 4
  br label %32

28:                                               ; preds = %18
  store i32 31, i32* %6, align 4
  br label %32

29:                                               ; preds = %18
  store i32 30, i32* %6, align 4
  br label %32

30:                                               ; preds = %18
  store i32 31, i32* %6, align 4
  br label %32

31:                                               ; preds = %18
  store i32 30, i32* %6, align 4
  br label %32

32:                                               ; preds = %31, %18, %30, %29, %28, %27, %26, %25, %24, %23, %22, %21, %20
  br label %33

33:                                               ; preds = %32
  %34 = load i32, i32* %8, align 4
  %35 = add nsw i32 %34, 1
  store i32 %35, i32* %8, align 4
  br label %14

36:                                               ; preds = %14
  %37 = load i32, i32* %5, align 4
  %38 = load i32, i32* %6, align 4
  %39 = add nsw i32 %37, %38
  store i32 %39, i32* %5, align 4
  %40 = load i32, i32* %5, align 4
  %41 = srem i32 %40, 7
  store i32 %41, i32* %7, align 4
  %42 = load i32, i32* %7, align 4
  %43 = load i32, i32* %2, align 4
  %44 = add nsw i32 %42, %43
  %45 = sub nsw i32 %44, 1
  %46 = srem i32 %45, 7
  store i32 %46, i32* %4, align 4
  %47 = load i32, i32* %4, align 4
  %48 = icmp eq i32 %47, 5
  br i1 %48, label %49, label %52

49:                                               ; preds = %36
  %50 = load i32, i32* %3, align 4
  %51 = call i32 (i8*, ...) @printf(i8* getelementptr inbounds ([4 x i8], [4 x i8]* @.str.1, i64 0, i64 0), i32 %50)
  br label %52

52:                                               ; preds = %49, %36
  br label %53

53:                                               ; preds = %52
  %54 = load i32, i32* %3, align 4
  %55 = add nsw i32 %54, 1
  store i32 %55, i32* %3, align 4
  br label %10

56:                                               ; preds = %10
  ret i32 0
}

declare dso_local i32 @__isoc99_scanf(i8*, ...) #1

declare dso_local i32 @printf(i8*, ...) #1


!llvm.module.flags = !{!0}
!llvm.ident = !{!1}

!0 = !{i32 1, !"wchar_size", i32 4}
!1 = !{!"clang version 10.0.0-4ubuntu1 "}
